target datalayout = "e-m:e-p270:32:32-p271:32:32-p272:64:64-i64:64-i128:128-f80:128-n8:16:32:64-S128"
target triple = "x86_64-pc-linux-gnu"

%"class.absl::lts_20240116::log_internal::Voidify" = type { i8 }
%"class.absl::lts_20240116::log_internal::LogMessage" = type { %"class.absl::lts_20240116::base_internal::ErrnoSaver", %"class.std::unique_ptr" }
%"class.absl::lts_20240116::base_internal::ErrnoSaver" = type { i32 }
%"class.std::unique_ptr" = type { %"struct.std::__uniq_ptr_data" }
%"struct.std::__uniq_ptr_data" = type { %"class.std::__uniq_ptr_impl" }
%"class.std::__uniq_ptr_impl" = type { %"class.std::tuple" }
%"class.std::tuple" = type { %"struct.std::_Tuple_impl" }
%"struct.std::_Tuple_impl" = type { %"struct.std::_Head_base.14" }
%"struct.std::_Head_base.14" = type { ptr }
%"class.ceres::internal::CompressedRowSparseMatrix" = type { %"class.ceres::internal::SparseMatrix", i32, i32, %"class.std::vector", %"class.std::vector", %"class.std::vector.1", i32, %"class.std::vector.6", %"class.std::vector.6" }
%"class.ceres::internal::SparseMatrix" = type { %"class.ceres::internal::LinearOperator" }
%"class.ceres::internal::LinearOperator" = type { ptr }
%"class.std::vector" = type { %"struct.std::_Vector_base" }
%"struct.std::_Vector_base" = type { %"struct.std::_Vector_base<int, std::allocator<int>>::_Vector_impl" }
%"struct.std::_Vector_base<int, std::allocator<int>>::_Vector_impl" = type { %"struct.std::_Vector_base<int, std::allocator<int>>::_Vector_impl_data" }
%"struct.std::_Vector_base<int, std::allocator<int>>::_Vector_impl_data" = type { ptr, ptr, ptr }
%"class.std::vector.1" = type { %"struct.std::_Vector_base.2" }
%"struct.std::_Vector_base.2" = type { %"struct.std::_Vector_base<double, std::allocator<double>>::_Vector_impl" }
%"struct.std::_Vector_base<double, std::allocator<double>>::_Vector_impl" = type { %"struct.std::_Vector_base<double, std::allocator<double>>::_Vector_impl_data" }
%"struct.std::_Vector_base<double, std::allocator<double>>::_Vector_impl_data" = type { ptr, ptr, ptr }
%"class.std::vector.6" = type { %"struct.std::_Vector_base.7" }
%"struct.std::_Vector_base.7" = type { %"struct.std::_Vector_base<ceres::internal::Block, std::allocator<ceres::internal::Block>>::_Vector_impl" }
%"struct.std::_Vector_base<ceres::internal::Block, std::allocator<ceres::internal::Block>>::_Vector_impl" = type { %"struct.std::_Vector_base<ceres::internal::Block, std::allocator<ceres::internal::Block>>::_Vector_impl_data" }
%"struct.std::_Vector_base<ceres::internal::Block, std::allocator<ceres::internal::Block>>::_Vector_impl_data" = type { ptr, ptr, ptr }
%"class.std::basic_string_view" = type { i64, ptr }
%"class.absl::lts_20240116::log_internal::LogMessageFatal" = type { %"class.absl::lts_20240116::log_internal::LogMessage" }

@.str = private unnamed_addr constant [143 x i8] c"generated/home/dtcxzyw/WorkSpace/Projects/compilers/llvm-opt-benchmark/bench/ceres/ceres-solver/internal/ceres/compressed_row_sparse_matrix.cc\00", align 1
@.str.11 = private unnamed_addr constant [13 x i8] c"x != nullptr\00", align 1
@.str.12 = private unnamed_addr constant [13 x i8] c"y != nullptr\00", align 1

; Function Attrs: noinline noreturn nounwind uwtable
define linkonce_odr hidden void @__clang_call_terminate(ptr noundef %0) #18 comdat {
  %2 = call ptr @__cxa_begin_catch(ptr %0) #26
  call void @_ZSt9terminatev() #29
  unreachable
}

; Function Attrs: mustprogress nounwind uwtable
define linkonce_odr hidden noundef i64 @_ZNSt11char_traitsIcE6lengthEPKc(ptr noundef %0) #1 comdat align 2 {
  %2 = alloca ptr, align 8
  store ptr %0, ptr %2, align 8, !tbaa !65
  %3 = load ptr, ptr %2, align 8, !tbaa !65
  %4 = call i64 @strlen(ptr noundef %3) #26
  ret i64 %4
}

; Function Attrs: mustprogress nounwind uwtable
define linkonce_odr hidden noundef nonnull align 8 dereferenceable(8) ptr @_ZNKSt6vectorIdSaIdEEixEm(ptr noundef nonnull align 8 dereferenceable(24) %0, i64 noundef %1) #1 comdat align 2 {
  %3 = alloca ptr, align 8
  %4 = alloca i64, align 8
  store ptr %0, ptr %3, align 8, !tbaa !48
  store i64 %1, ptr %4, align 8, !tbaa !52
  %5 = load ptr, ptr %3, align 8
  %6 = getelementptr inbounds nuw %"struct.std::_Vector_base.2", ptr %5, i32 0, i32 0
  %7 = getelementptr inbounds nuw %"struct.std::_Vector_base<double, std::allocator<double>>::_Vector_impl_data", ptr %6, i32 0, i32 0
  %8 = load ptr, ptr %7, align 8, !tbaa !57
  %9 = load i64, ptr %4, align 8, !tbaa !52
  %10 = getelementptr inbounds nuw double, ptr %8, i64 %9
  ret ptr %10
}

; Function Attrs: mustprogress nounwind uwtable
define linkonce_odr hidden noundef nonnull align 4 dereferenceable(4) ptr @_ZNKSt6vectorIiSaIiEEixEm(ptr noundef nonnull align 8 dereferenceable(24) %0, i64 noundef %1) #1 comdat align 2 {
  %3 = alloca ptr, align 8
  %4 = alloca i64, align 8
  store ptr %0, ptr %3, align 8, !tbaa !46
  store i64 %1, ptr %4, align 8, !tbaa !52
  %5 = load ptr, ptr %3, align 8
  %6 = getelementptr inbounds nuw %"struct.std::_Vector_base", ptr %5, i32 0, i32 0
  %7 = getelementptr inbounds nuw %"struct.std::_Vector_base<int, std::allocator<int>>::_Vector_impl_data", ptr %6, i32 0, i32 0
  %8 = load ptr, ptr %7, align 8, !tbaa !55
  %9 = load i64, ptr %4, align 8, !tbaa !52
  %10 = getelementptr inbounds nuw i32, ptr %8, i64 %9
  ret ptr %10
}

; Function Attrs: mustprogress nounwind uwtable
define linkonce_odr hidden void @_ZNKO4absl12lts_2024011612log_internal7VoidifyaaINS1_10LogMessageEEEvRKT_(ptr noundef nonnull align 1 dereferenceable(1) %0, ptr noundef nonnull align 8 dereferenceable(16) %1) #1 comdat align 2 {
  %3 = alloca ptr, align 8
  %4 = alloca ptr, align 8
  store ptr %0, ptr %3, align 8, !tbaa !61
  store ptr %1, ptr %4, align 8, !tbaa !63
  ret void
}

; Function Attrs: mustprogress nounwind uwtable
define linkonce_odr hidden noundef nonnull align 8 dereferenceable(16) ptr @_ZN4absl12lts_2024011612log_internal10LogMessage14InternalStreamEv(ptr noundef nonnull align 8 dereferenceable(16) %0) #1 comdat align 2 {
  %2 = alloca ptr, align 8
  store ptr %0, ptr %2, align 8, !tbaa !63
  %3 = load ptr, ptr %2, align 8
  ret ptr %3
}

; Function Attrs: mustprogress nounwind uwtable
define linkonce_odr hidden void @_ZNSt17basic_string_viewIcSt11char_traitsIcEEC2EPKc(ptr noundef nonnull align 8 dereferenceable(16) %0, ptr noundef nonnull %1) unnamed_addr #1 comdat align 2 personality ptr @__gxx_personality_v0 {
  %3 = alloca ptr, align 8
  %4 = alloca ptr, align 8
  store ptr %0, ptr %3, align 8, !tbaa !115
  store ptr %1, ptr %4, align 8, !tbaa !65
  %5 = load ptr, ptr %3, align 8
  %6 = getelementptr inbounds nuw %"class.std::basic_string_view", ptr %5, i32 0, i32 0
  %7 = load ptr, ptr %4, align 8, !tbaa !65
  %8 = invoke noundef i64 @_ZNSt11char_traitsIcE6lengthEPKc(ptr noundef %7)
          to label %9 unwind label %12

9:                                                ; preds = %2
  store i64 %8, ptr %6, align 8, !tbaa !117
  %10 = getelementptr inbounds nuw %"class.std::basic_string_view", ptr %5, i32 0, i32 1
  %11 = load ptr, ptr %4, align 8, !tbaa !65
  store ptr %11, ptr %10, align 8, !tbaa !119
  ret void

12:                                               ; preds = %2
  %13 = landingpad { ptr, i32 }
          catch ptr null
  %14 = extractvalue { ptr, i32 } %13, 0
  call void @__clang_call_terminate(ptr %14) #29
  unreachable
}

; Function Attrs: mustprogress uwtable
define hidden void @_ZNK5ceres8internal25CompressedRowSparseMatrix25LeftMultiplyAndAccumulateEPKdPd(ptr noundef nonnull align 8 dereferenceable(144) %0, ptr noundef %1, ptr noundef %2) unnamed_addr #3 align 2 personality ptr @__gxx_personality_v0 {
  %4 = alloca ptr, align 8
  %5 = alloca ptr, align 8
  %6 = alloca ptr, align 8
  %7 = alloca %"class.absl::lts_20240116::log_internal::Voidify", align 1
  %8 = alloca %"class.absl::lts_20240116::log_internal::LogMessageFatal", align 8
  %9 = alloca i1, align 1
  %10 = alloca %"class.std::basic_string_view", align 8
  %11 = alloca i1, align 1
  %12 = alloca ptr, align 8
  %13 = alloca i32, align 4
  %14 = alloca %"class.absl::lts_20240116::log_internal::Voidify", align 1
  %15 = alloca %"class.absl::lts_20240116::log_internal::LogMessageFatal", align 8
  %16 = alloca i1, align 1
  %17 = alloca %"class.std::basic_string_view", align 8
  %18 = alloca i1, align 1
  %19 = alloca i32, align 4
  %20 = alloca i32, align 4
  %21 = alloca i32, align 4
  store ptr %0, ptr %4, align 8, !tbaa !14
  store ptr %1, ptr %5, align 8, !tbaa !56
  store ptr %2, ptr %6, align 8, !tbaa !56
  %22 = load ptr, ptr %4, align 8
  %23 = load ptr, ptr %5, align 8, !tbaa !56
  %24 = icmp ne ptr %23, null
  %25 = xor i1 %24, true
  %26 = zext i1 %25 to i64
  %27 = call i64 @llvm.expect.i64(i64 %26, i64 0)
  %28 = icmp ne i64 %27, 0
  call void @llvm.lifetime.start.p0(i64 1, ptr %7) #26
  store i1 false, ptr %9, align 1
  store i1 false, ptr %11, align 1
  br i1 %28, label %30, label %29

29:                                               ; preds = %3
  br label %38

30:                                               ; preds = %3
  call void @llvm.lifetime.start.p0(i64 16, ptr %8) #26
  store i1 true, ptr %9, align 1
  call void @_ZNSt17basic_string_viewIcSt11char_traitsIcEEC2EPKc(ptr noundef nonnull align 8 dereferenceable(16) %10, ptr noundef @.str.11) #26
  %31 = getelementptr inbounds nuw { i64, ptr }, ptr %10, i32 0, i32 0
  %32 = load i64, ptr %31, align 8
  %33 = getelementptr inbounds nuw { i64, ptr }, ptr %10, i32 0, i32 1
  %34 = load ptr, ptr %33, align 8
  call void @_ZN4absl12lts_2024011612log_internal15LogMessageFatalC1EPKciSt17basic_string_viewIcSt11char_traitsIcEE(ptr noundef nonnull align 8 dereferenceable(16) %8, ptr noundef @.str, i32 noundef 364, i64 %32, ptr %34) #27
  store i1 true, ptr %11, align 1
  %35 = invoke noundef nonnull align 8 dereferenceable(16) ptr @_ZN4absl12lts_2024011612log_internal10LogMessage14InternalStreamEv(ptr noundef nonnull align 8 dereferenceable(16) %8)
          to label %36 unwind label %41

36:                                               ; preds = %30
  invoke void @_ZNKO4absl12lts_2024011612log_internal7VoidifyaaINS1_10LogMessageEEEvRKT_(ptr noundef nonnull align 1 dereferenceable(1) %7, ptr noundef nonnull align 8 dereferenceable(16) %35)
          to label %37 unwind label %41

37:                                               ; preds = %36
  br label %38

38:                                               ; preds = %37, %29
  %39 = load i1, ptr %11, align 1
  br i1 %39, label %40, label %47

40:                                               ; preds = %38
  call void @_ZN4absl12lts_2024011612log_internal15LogMessageFatalD1Ev(ptr noundef nonnull align 8 dereferenceable(16) %8) #29
  unreachable

41:                                               ; preds = %36, %30
  %42 = landingpad { ptr, i32 }
          cleanup
  %43 = extractvalue { ptr, i32 } %42, 0
  store ptr %43, ptr %12, align 8
  %44 = extractvalue { ptr, i32 } %42, 1
  store i32 %44, ptr %13, align 4
  %45 = load i1, ptr %11, align 1
  br i1 %45, label %69, label %71

46:                                               ; No predecessors!
  br label %47

47:                                               ; preds = %46, %38
  %48 = load i1, ptr %9, align 1
  br i1 %48, label %49, label %50

49:                                               ; preds = %47
  call void @llvm.lifetime.end.p0(i64 16, ptr %8) #26
  br label %50

50:                                               ; preds = %49, %47
  call void @llvm.lifetime.end.p0(i64 1, ptr %7) #26
  %51 = load ptr, ptr %6, align 8, !tbaa !56
  %52 = icmp ne ptr %51, null
  %53 = xor i1 %52, true
  %54 = zext i1 %53 to i64
  %55 = call i64 @llvm.expect.i64(i64 %54, i64 0)
  %56 = icmp ne i64 %55, 0
  call void @llvm.lifetime.start.p0(i64 1, ptr %14) #26
  store i1 false, ptr %16, align 1
  store i1 false, ptr %18, align 1
  br i1 %56, label %58, label %57

57:                                               ; preds = %50
  br label %66

58:                                               ; preds = %50
  call void @llvm.lifetime.start.p0(i64 16, ptr %15) #26
  store i1 true, ptr %16, align 1
  call void @_ZNSt17basic_string_viewIcSt11char_traitsIcEEC2EPKc(ptr noundef nonnull align 8 dereferenceable(16) %17, ptr noundef @.str.12) #26
  %59 = getelementptr inbounds nuw { i64, ptr }, ptr %17, i32 0, i32 0
  %60 = load i64, ptr %59, align 8
  %61 = getelementptr inbounds nuw { i64, ptr }, ptr %17, i32 0, i32 1
  %62 = load ptr, ptr %61, align 8
  call void @_ZN4absl12lts_2024011612log_internal15LogMessageFatalC1EPKciSt17basic_string_viewIcSt11char_traitsIcEE(ptr noundef nonnull align 8 dereferenceable(16) %15, ptr noundef @.str, i32 noundef 365, i64 %60, ptr %62) #27
  store i1 true, ptr %18, align 1
  %63 = invoke noundef nonnull align 8 dereferenceable(16) ptr @_ZN4absl12lts_2024011612log_internal10LogMessage14InternalStreamEv(ptr noundef nonnull align 8 dereferenceable(16) %15)
          to label %64 unwind label %75

64:                                               ; preds = %58
  invoke void @_ZNKO4absl12lts_2024011612log_internal7VoidifyaaINS1_10LogMessageEEEvRKT_(ptr noundef nonnull align 1 dereferenceable(1) %14, ptr noundef nonnull align 8 dereferenceable(16) %63)
          to label %65 unwind label %75

65:                                               ; preds = %64
  br label %66

66:                                               ; preds = %65, %57
  %67 = load i1, ptr %18, align 1
  br i1 %67, label %68, label %81

68:                                               ; preds = %66
  call void @_ZN4absl12lts_2024011612log_internal15LogMessageFatalD1Ev(ptr noundef nonnull align 8 dereferenceable(16) %15) #29
  unreachable

69:                                               ; preds = %41
  call void @_ZN4absl12lts_2024011612log_internal15LogMessageFatalD1Ev(ptr noundef nonnull align 8 dereferenceable(16) %8) #29
  unreachable

70:                                               ; No predecessors!
  br label %71

71:                                               ; preds = %70, %41
  %72 = load i1, ptr %9, align 1
  br i1 %72, label %73, label %74

73:                                               ; preds = %71
  call void @llvm.lifetime.end.p0(i64 16, ptr %8) #26
  br label %74

74:                                               ; preds = %73, %71
  call void @llvm.lifetime.end.p0(i64 1, ptr %7) #26
  br label %150

75:                                               ; preds = %64, %58
  %76 = landingpad { ptr, i32 }
          cleanup
  %77 = extractvalue { ptr, i32 } %76, 0
  store ptr %77, ptr %12, align 8
  %78 = extractvalue { ptr, i32 } %76, 1
  store i32 %78, ptr %13, align 4
  %79 = load i1, ptr %18, align 1
  br i1 %79, label %95, label %97

80:                                               ; No predecessors!
  br label %81

81:                                               ; preds = %80, %66
  %82 = load i1, ptr %16, align 1
  br i1 %82, label %83, label %84

83:                                               ; preds = %81
  call void @llvm.lifetime.end.p0(i64 16, ptr %15) #26
  br label %84

84:                                               ; preds = %83, %81
  call void @llvm.lifetime.end.p0(i64 1, ptr %14) #26
  %85 = getelementptr inbounds nuw %"class.ceres::internal::CompressedRowSparseMatrix", ptr %22, i32 0, i32 6
  %86 = load i32, ptr %85, align 8, !tbaa !41
  %87 = icmp eq i32 %86, 0
  br i1 %87, label %88, label %146

88:                                               ; preds = %84
  call void @llvm.lifetime.start.p0(i64 4, ptr %19) #26
  store i32 0, ptr %19, align 4, !tbaa !16
  br label %89

89:                                               ; preds = %142, %88
  %90 = load i32, ptr %19, align 4, !tbaa !16
  %91 = getelementptr inbounds nuw %"class.ceres::internal::CompressedRowSparseMatrix", ptr %22, i32 0, i32 1
  %92 = load i32, ptr %91, align 8, !tbaa !20
  %93 = icmp slt i32 %90, %92
  br i1 %93, label %101, label %94

94:                                               ; preds = %89
  store i32 2, ptr %20, align 4
  call void @llvm.lifetime.end.p0(i64 4, ptr %19) #26
  br label %145

95:                                               ; preds = %75
  call void @_ZN4absl12lts_2024011612log_internal15LogMessageFatalD1Ev(ptr noundef nonnull align 8 dereferenceable(16) %15) #29
  unreachable

96:                                               ; No predecessors!
  br label %97

97:                                               ; preds = %96, %75
  %98 = load i1, ptr %16, align 1
  br i1 %98, label %99, label %100

99:                                               ; preds = %97
  call void @llvm.lifetime.end.p0(i64 16, ptr %15) #26
  br label %100

100:                                              ; preds = %99, %97
  call void @llvm.lifetime.end.p0(i64 1, ptr %14) #26
  br label %150

101:                                              ; preds = %89
  call void @llvm.lifetime.start.p0(i64 4, ptr %21) #26
  %102 = getelementptr inbounds nuw %"class.ceres::internal::CompressedRowSparseMatrix", ptr %22, i32 0, i32 3
  %103 = load i32, ptr %19, align 4, !tbaa !16
  %104 = sext i32 %103 to i64
  %105 = call noundef nonnull align 4 dereferenceable(4) ptr @_ZNKSt6vectorIiSaIiEEixEm(ptr noundef nonnull align 8 dereferenceable(24) %102, i64 noundef %104) #26
  %106 = load i32, ptr %105, align 4, !tbaa !16
  store i32 %106, ptr %21, align 4, !tbaa !16
  br label %107

107:                                              ; preds = %138, %101
  %108 = load i32, ptr %21, align 4, !tbaa !16
  %109 = getelementptr inbounds nuw %"class.ceres::internal::CompressedRowSparseMatrix", ptr %22, i32 0, i32 3
  %110 = load i32, ptr %19, align 4, !tbaa !16
  %111 = add nsw i32 %110, 1
  %112 = sext i32 %111 to i64
  %113 = call noundef nonnull align 4 dereferenceable(4) ptr @_ZNKSt6vectorIiSaIiEEixEm(ptr noundef nonnull align 8 dereferenceable(24) %109, i64 noundef %112) #26
  %114 = load i32, ptr %113, align 4, !tbaa !16
  %115 = icmp slt i32 %108, %114
  br i1 %115, label %117, label %116

116:                                              ; preds = %107
  store i32 5, ptr %20, align 4
  call void @llvm.lifetime.end.p0(i64 4, ptr %21) #26
  br label %141

117:                                              ; preds = %107
  %118 = getelementptr inbounds nuw %"class.ceres::internal::CompressedRowSparseMatrix", ptr %22, i32 0, i32 5
  %119 = load i32, ptr %21, align 4, !tbaa !16
  %120 = sext i32 %119 to i64
  %121 = call noundef nonnull align 8 dereferenceable(8) ptr @_ZNKSt6vectorIdSaIdEEixEm(ptr noundef nonnull align 8 dereferenceable(24) %118, i64 noundef %120) #26
  %122 = load double, ptr %121, align 8, !tbaa !42
  %123 = load ptr, ptr %5, align 8, !tbaa !56
  %124 = load i32, ptr %19, align 4, !tbaa !16
  %125 = sext i32 %124 to i64
  %126 = getelementptr inbounds double, ptr %123, i64 %125
  %127 = load double, ptr %126, align 8, !tbaa !42
  %128 = load ptr, ptr %6, align 8, !tbaa !56
  %129 = getelementptr inbounds nuw %"class.ceres::internal::CompressedRowSparseMatrix", ptr %22, i32 0, i32 4
  %130 = load i32, ptr %21, align 4, !tbaa !16
  %131 = sext i32 %130 to i64
  %132 = call noundef nonnull align 4 dereferenceable(4) ptr @_ZNKSt6vectorIiSaIiEEixEm(ptr noundef nonnull align 8 dereferenceable(24) %129, i64 noundef %131) #26
  %133 = load i32, ptr %132, align 4, !tbaa !16
  %134 = sext i32 %133 to i64
  %135 = getelementptr inbounds double, ptr %128, i64 %134
  %136 = load double, ptr %135, align 8, !tbaa !42
  %137 = call double @llvm.fmuladd.f64(double %122, double %127, double %136)
  store double %137, ptr %135, align 8, !tbaa !42
  br label %138

138:                                              ; preds = %117
  %139 = load i32, ptr %21, align 4, !tbaa !16
  %140 = add nsw i32 %139, 1
  store i32 %140, ptr %21, align 4, !tbaa !16
  br label %107, !llvm.loop !135

141:                                              ; preds = %116
  br label %142

142:                                              ; preds = %141
  %143 = load i32, ptr %19, align 4, !tbaa !16
  %144 = add nsw i32 %143, 1
  store i32 %144, ptr %19, align 4, !tbaa !16
  br label %89, !llvm.loop !136

145:                                              ; preds = %94
  br label %149

146:                                              ; preds = %84
  %147 = load ptr, ptr %5, align 8, !tbaa !56
  %148 = load ptr, ptr %6, align 8, !tbaa !56
  call void @_ZNK5ceres8internal25CompressedRowSparseMatrix26RightMultiplyAndAccumulateEPKdPd(ptr noundef nonnull align 8 dereferenceable(144) %22, ptr noundef %147, ptr noundef %148)
  br label %149

149:                                              ; preds = %146, %145
  ret void

150:                                              ; preds = %100, %74
  %151 = load ptr, ptr %12, align 8
  %152 = load i32, ptr %13, align 4
  %153 = insertvalue { ptr, i32 } poison, ptr %151, 0
  %154 = insertvalue { ptr, i32 } %153, i32 %152, 1
  resume { ptr, i32 } %154
}