; Function Attrs: mustprogress uwtable
define hidden void @_ZNK5ceres8internal25CompressedRowSparseMatrix25LeftMultiplyAndAccumulateEPKdPd(ptr noundef nonnull align 8 dereferenceable(144) %0, ptr noundef captures(address_is_null) %1, ptr noundef captures(address_is_null) %2) unnamed_addr #0 align 2 personality ptr @__gxx_personality_v0 {
  %4 = alloca %"class.absl::lts_20240116::log_internal::LogMessageFatal", align 8
  %5 = alloca %"class.absl::lts_20240116::log_internal::LogMessageFatal", align 8
  %.not = icmp eq ptr %1, null
  br i1 %.not, label %6, label %.critedge, !prof !80

6:                                                ; preds = %3
  call void @llvm.lifetime.start.p0(i64 16, ptr nonnull %4) #30
  call void @_ZN4absl12lts_2024011612log_internal15LogMessageFatalC1EPKciSt17basic_string_viewIcSt11char_traitsIcEE(ptr noundef nonnull align 8 dereferenceable(16) %4, ptr noundef nonnull @.str, i32 noundef 364, i64 12, ptr nonnull @.str.11) #31
  call void @_ZN4absl12lts_2024011612log_internal15LogMessageFatalD1Ev(ptr noundef nonnull align 8 dereferenceable(16) %4) #36
  unreachable

.critedge:                                        ; preds = %3
  %.not24 = icmp eq ptr %2, null
  br i1 %.not24, label %7, label %.critedge26, !prof !80

7:                                                ; preds = %.critedge
  call void @llvm.lifetime.start.p0(i64 16, ptr nonnull %5) #30
  call void @_ZN4absl12lts_2024011612log_internal15LogMessageFatalC1EPKciSt17basic_string_viewIcSt11char_traitsIcEE(ptr noundef nonnull align 8 dereferenceable(16) %5, ptr noundef nonnull @.str, i32 noundef 365, i64 12, ptr nonnull @.str.12) #31
  call void @_ZN4absl12lts_2024011612log_internal15LogMessageFatalD1Ev(ptr noundef nonnull align 8 dereferenceable(16) %5) #36
  unreachable

.critedge26:                                      ; preds = %.critedge
  %8 = getelementptr inbounds nuw i8, ptr %0, i64 88
  %9 = load i32, ptr %8, align 8, !tbaa !30
  %10 = icmp eq i32 %9, 0
  br i1 %10, label %.preheader, label %37

.preheader:                                       ; preds = %.critedge26
  %11 = getelementptr inbounds nuw i8, ptr %0, i64 8
  %12 = load i32, ptr %11, align 8, !tbaa !6
  %13 = icmp sgt i32 %12, 0
  br i1 %13, label %.lr.ph34, label %.loopexit31

.lr.ph34:                                         ; preds = %.preheader
  %14 = getelementptr inbounds nuw i8, ptr %0, i64 16
  %15 = load ptr, ptr %14, align 8, !tbaa !33
  %16 = getelementptr inbounds nuw i8, ptr %0, i64 64
  %17 = load ptr, ptr %16, align 8
  %18 = getelementptr inbounds nuw i8, ptr %0, i64 40
  %19 = load ptr, ptr %18, align 8
  %wide.trip.count39 = zext nneg i32 %12 to i64
  %.pre = load i32, ptr %15, align 4, !tbaa !31
  br label %20

.loopexit:                                        ; preds = %27, %20
  %exitcond40.not = icmp eq i64 %indvars.iv.next37, %wide.trip.count39
  br i1 %exitcond40.not, label %.loopexit31, label %20, !llvm.loop !134

20:                                               ; preds = %.lr.ph34, %.loopexit
  %21 = phi i32 [ %.pre, %.lr.ph34 ], [ %23, %.loopexit ]
  %indvars.iv36 = phi i64 [ 0, %.lr.ph34 ], [ %indvars.iv.next37, %.loopexit ]
  %indvars.iv.next37 = add nuw nsw i64 %indvars.iv36, 1
  %22 = getelementptr inbounds nuw i32, ptr %15, i64 %indvars.iv.next37
  %23 = load i32, ptr %22, align 4, !tbaa !31
  %24 = icmp slt i32 %21, %23
  br i1 %24, label %.lr.ph, label %.loopexit

.lr.ph:                                           ; preds = %20
  %25 = getelementptr inbounds nuw double, ptr %1, i64 %indvars.iv36
  %26 = sext i32 %21 to i64
  %wide.trip.count = sext i32 %23 to i64
  br label %27

27:                                               ; preds = %.lr.ph, %27
  %indvars.iv = phi i64 [ %26, %.lr.ph ], [ %indvars.iv.next, %27 ]
  %28 = getelementptr inbounds nuw double, ptr %17, i64 %indvars.iv
  %29 = load double, ptr %28, align 8, !tbaa !34
  %30 = load double, ptr %25, align 8, !tbaa !34
  %31 = getelementptr inbounds nuw i32, ptr %19, i64 %indvars.iv
  %32 = load i32, ptr %31, align 4, !tbaa !31
  %33 = sext i32 %32 to i64
  %34 = getelementptr inbounds double, ptr %2, i64 %33
  %35 = load double, ptr %34, align 8, !tbaa !34
  %36 = tail call double @llvm.fmuladd.f64(double %29, double %30, double %35)
  store double %36, ptr %34, align 8, !tbaa !34
  %indvars.iv.next = add nsw i64 %indvars.iv, 1
  %exitcond.not = icmp eq i64 %indvars.iv.next, %wide.trip.count
  br i1 %exitcond.not, label %.loopexit, label %27, !llvm.loop !135

37:                                               ; preds = %.critedge26
  tail call void @_ZNK5ceres8internal25CompressedRowSparseMatrix26RightMultiplyAndAccumulateEPKdPd(ptr noundef nonnull align 8 dereferenceable(144) %0, ptr noundef nonnull %1, ptr noundef nonnull %2)
  br label %.loopexit31

.loopexit31:                                      ; preds = %.loopexit, %.preheader, %37
  ret void
}